target datalayout = "e-m:e-p270:32:32-p271:32:32-p272:64:64-i64:64-i128:128-f80:128-n8:16:32:64-S128"
target triple = "x86_64-pc-linux-gnu"

%"struct.Yosys::RTLIL::Const" = type { i16, i8, %union.anon }
%union.anon = type { %"class.std::__cxx11::basic_string" }
%"class.std::__cxx11::basic_string" = type { %"struct.std::__cxx11::basic_string<char>::_Alloc_hider", i64, %union.anon.3 }
%"struct.std::__cxx11::basic_string<char>::_Alloc_hider" = type { ptr }
%union.anon.3 = type { i64, [8 x i8] }
%"class.Yosys::RTLIL::Const::const_iterator" = type { ptr, i64 }

; Function Attrs: mustprogress nounwind uwtable
define linkonce_odr void @_ZN5Yosys5RTLIL5Const14const_iteratorC2ERKS1_m(ptr noundef nonnull align 8 dereferenceable(16) %0, ptr noundef nonnull align 8 dereferenceable(40) %1, i64 noundef %2) unnamed_addr #4 comdat align 2 {
  %4 = alloca ptr, align 8
  %5 = alloca ptr, align 8
  %6 = alloca i64, align 8
  store ptr %0, ptr %4, align 8, !tbaa !81
  store ptr %1, ptr %5, align 8, !tbaa !10
  store i64 %2, ptr %6, align 8, !tbaa !25
  %7 = load ptr, ptr %4, align 8
  %8 = getelementptr inbounds nuw %"class.Yosys::RTLIL::Const::const_iterator", ptr %7, i32 0, i32 0
  %9 = load ptr, ptr %5, align 8, !tbaa !10
  store ptr %9, ptr %8, align 8, !tbaa !10
  %10 = getelementptr inbounds nuw %"class.Yosys::RTLIL::Const::const_iterator", ptr %7, i32 0, i32 1
  %11 = load i64, ptr %6, align 8, !tbaa !25
  store i64 %11, ptr %10, align 8, !tbaa !85
  ret void
}

; Function Attrs: mustprogress uwtable
define linkonce_odr { ptr, i64 } @_ZN5Yosys5RTLIL5Const14const_iteratormiEi(ptr noundef nonnull align 8 dereferenceable(16) %0, i32 noundef %1) #5 comdat align 2 {
  %3 = alloca %"class.Yosys::RTLIL::Const::const_iterator", align 8
  %4 = alloca ptr, align 8
  %5 = alloca i32, align 4
  store ptr %0, ptr %4, align 8, !tbaa !81
  store i32 %1, ptr %5, align 4, !tbaa !21
  %6 = load ptr, ptr %4, align 8
  %7 = getelementptr inbounds nuw %"class.Yosys::RTLIL::Const::const_iterator", ptr %6, i32 0, i32 0
  %8 = load ptr, ptr %7, align 8, !tbaa !83
  %9 = getelementptr inbounds nuw %"class.Yosys::RTLIL::Const::const_iterator", ptr %6, i32 0, i32 1
  %10 = load i64, ptr %9, align 8, !tbaa !85
  %11 = load i32, ptr %5, align 4, !tbaa !21
  %12 = sext i32 %11 to i64
  %13 = sub i64 %10, %12
  call void @_ZN5Yosys5RTLIL5Const14const_iteratorC2ERKS1_m(ptr noundef nonnull align 8 dereferenceable(16) %3, ptr noundef nonnull align 8 dereferenceable(40) %8, i64 noundef %13)
  %14 = load { ptr, i64 }, ptr %3, align 8
  ret { ptr, i64 } %14
}

; Function Attrs: mustprogress uwtable
define linkonce_odr { ptr, i64 } @_ZNK5Yosys5RTLIL5Const3endEv(ptr noundef nonnull align 8 dereferenceable(40) %0) #5 comdat align 2 {
  %2 = alloca %"class.Yosys::RTLIL::Const::const_iterator", align 8
  %3 = alloca ptr, align 8
  store ptr %0, ptr %3, align 8, !tbaa !10
  %4 = load ptr, ptr %3, align 8
  %5 = call noundef i32 @_ZNK5Yosys5RTLIL5Const4sizeEv(ptr noundef nonnull align 8 dereferenceable(40) %4)
  %6 = sext i32 %5 to i64
  call void @_ZN5Yosys5RTLIL5Const14const_iteratorC2ERKS1_m(ptr noundef nonnull align 8 dereferenceable(16) %2, ptr noundef nonnull align 8 dereferenceable(40) %4, i64 noundef %6)
  %7 = load { ptr, i64 }, ptr %2, align 8
  ret { ptr, i64 } %7
}

; Function Attrs: mustprogress uwtable
define linkonce_odr noundef zeroext i8 @_ZNK5Yosys5RTLIL5ConstixEm(ptr noundef nonnull align 8 dereferenceable(40) %0, i64 noundef %1) #5 comdat align 2 {
  %3 = alloca ptr, align 8
  %4 = alloca i64, align 8
  %5 = alloca %"class.Yosys::RTLIL::Const::const_iterator", align 8
  store ptr %0, ptr %3, align 8, !tbaa !10
  store i64 %1, ptr %4, align 8, !tbaa !25
  %6 = load ptr, ptr %3, align 8
  call void @llvm.lifetime.start.p0(i64 16, ptr %5) #3
  %7 = load i64, ptr %4, align 8, !tbaa !25
  call void @_ZN5Yosys5RTLIL5Const14const_iteratorC2ERKS1_m(ptr noundef nonnull align 8 dereferenceable(16) %5, ptr noundef nonnull align 8 dereferenceable(40) %6, i64 noundef %7)
  %8 = call noundef zeroext i8 @_ZNK5Yosys5RTLIL5Const14const_iteratordeEv(ptr noundef nonnull align 8 dereferenceable(16) %5)
  call void @llvm.lifetime.end.p0(i64 16, ptr %5) #3
  ret i8 %8
}

; Function Attrs: mustprogress uwtable
define linkonce_odr noundef zeroext i8 @_ZNK5Yosys5RTLIL5Const4backEv(ptr noundef nonnull align 8 dereferenceable(40) %0) #5 comdat align 2 {
  %2 = alloca ptr, align 8
  %3 = alloca %"class.Yosys::RTLIL::Const::const_iterator", align 8
  %4 = alloca %"class.Yosys::RTLIL::Const::const_iterator", align 8
  store ptr %0, ptr %2, align 8, !tbaa !10
  %5 = load ptr, ptr %2, align 8
  call void @llvm.lifetime.start.p0(i64 16, ptr %3) #3
  call void @llvm.lifetime.start.p0(i64 16, ptr %4) #3
  %6 = call { ptr, i64 } @_ZNK5Yosys5RTLIL5Const3endEv(ptr noundef nonnull align 8 dereferenceable(40) %5)
  %7 = getelementptr inbounds nuw { ptr, i64 }, ptr %4, i32 0, i32 0
  %8 = extractvalue { ptr, i64 } %6, 0
  store ptr %8, ptr %7, align 8
  %9 = getelementptr inbounds nuw { ptr, i64 }, ptr %4, i32 0, i32 1
  %10 = extractvalue { ptr, i64 } %6, 1
  store i64 %10, ptr %9, align 8
  %11 = call { ptr, i64 } @_ZN5Yosys5RTLIL5Const14const_iteratormiEi(ptr noundef nonnull align 8 dereferenceable(16) %4, i32 noundef 1)
  %12 = getelementptr inbounds nuw { ptr, i64 }, ptr %3, i32 0, i32 0
  %13 = extractvalue { ptr, i64 } %11, 0
  store ptr %13, ptr %12, align 8
  %14 = getelementptr inbounds nuw { ptr, i64 }, ptr %3, i32 0, i32 1
  %15 = extractvalue { ptr, i64 } %11, 1
  store i64 %15, ptr %14, align 8
  %16 = call noundef zeroext i8 @_ZNK5Yosys5RTLIL5Const14const_iteratordeEv(ptr noundef nonnull align 8 dereferenceable(16) %3)
  call void @llvm.lifetime.end.p0(i64 16, ptr %4) #3
  call void @llvm.lifetime.end.p0(i64 16, ptr %3) #3
  ret i8 %16
}

; Function Attrs: mustprogress uwtable
define noundef zeroext i1 @_ZN5Yosys15const_to_mp_intERKNS_5RTLIL5ConstEP6mp_intbb(ptr noundef nonnull align 8 dereferenceable(40) %0, ptr noundef %1, i1 noundef zeroext %2, i1 noundef zeroext %3) #5 {
  %5 = alloca i1, align 1
  %6 = alloca ptr, align 8
  %7 = alloca ptr, align 8
  %8 = alloca i8, align 1
  %9 = alloca i8, align 1
  %10 = alloca i8, align 1
  %11 = alloca i32, align 4
  %12 = alloca i32, align 4
  store ptr %0, ptr %6, align 8, !tbaa !10
  store ptr %1, ptr %7, align 8, !tbaa !13
  %13 = zext i1 %2 to i8
  store i8 %13, ptr %8, align 1, !tbaa !6
  %14 = zext i1 %3 to i8
  store i8 %14, ptr %9, align 1, !tbaa !6
  %15 = load ptr, ptr %6, align 8, !tbaa !10
  %16 = call noundef zeroext i1 @_ZNK5Yosys5RTLIL5Const12is_fully_defEv(ptr noundef nonnull align 8 dereferenceable(40) %15)
  br i1 %16, label %18, label %17

17:                                               ; preds = %4
  store i1 false, ptr %5, align 1
  br label %106

18:                                               ; preds = %4
  %19 = load ptr, ptr %7, align 8, !tbaa !13
  %20 = call i32 @TclBN_mp_init(ptr noundef %19)
  %21 = icmp ne i32 %20, 0
  br i1 %21, label %22, label %23

22:                                               ; preds = %18
  store i1 false, ptr %5, align 1
  br label %106

23:                                               ; preds = %18
  call void @llvm.lifetime.start.p0(i64 1, ptr %10) #3
  %24 = load ptr, ptr %6, align 8, !tbaa !10
  %25 = getelementptr inbounds nuw %"struct.Yosys::RTLIL::Const", ptr %24, i32 0, i32 0
  %26 = load i16, ptr %25, align 8, !tbaa !15
  %27 = sext i16 %26 to i32
  %28 = and i32 %27, 2
  %29 = icmp ne i32 %28, 0
  br i1 %29, label %33, label %30

30:                                               ; preds = %23
  %31 = load i8, ptr %8, align 1, !tbaa !6, !range !19, !noundef !20
  %32 = trunc i8 %31 to i1
  br i1 %32, label %33, label %44

33:                                               ; preds = %30, %23
  %34 = load i8, ptr %9, align 1, !tbaa !6, !range !19, !noundef !20
  %35 = trunc i8 %34 to i1
  br i1 %35, label %44, label %36

36:                                               ; preds = %33
  %37 = load ptr, ptr %6, align 8, !tbaa !10
  %38 = call noundef zeroext i1 @_ZNK5Yosys5RTLIL5Const5emptyEv(ptr noundef nonnull align 8 dereferenceable(40) %37)
  br i1 %38, label %44, label %39

39:                                               ; preds = %36
  %40 = load ptr, ptr %6, align 8, !tbaa !10
  %41 = call noundef zeroext i8 @_ZNK5Yosys5RTLIL5Const4backEv(ptr noundef nonnull align 8 dereferenceable(40) %40)
  %42 = zext i8 %41 to i32
  %43 = icmp eq i32 %42, 1
  br label %44

44:                                               ; preds = %39, %36, %33, %30
  %45 = phi i1 [ false, %36 ], [ false, %33 ], [ false, %30 ], [ %43, %39 ]
  %46 = zext i1 %45 to i8
  store i8 %46, ptr %10, align 1, !tbaa !6
  call void @llvm.lifetime.start.p0(i64 4, ptr %11) #3
  %47 = load ptr, ptr %6, align 8, !tbaa !10
  %48 = call noundef i32 @_ZNK5Yosys5RTLIL5Const4sizeEv(ptr noundef nonnull align 8 dereferenceable(40) %47)
  %49 = sub nsw i32 %48, 1
  store i32 %49, ptr %11, align 4, !tbaa !21
  br label %50

50:                                               ; preds = %83, %44
  %51 = load i32, ptr %11, align 4, !tbaa !21
  %52 = icmp sge i32 %51, 0
  br i1 %52, label %54, label %53

53:                                               ; preds = %50
  store i32 2, ptr %12, align 4
  br label %86

54:                                               ; preds = %50
  %55 = load ptr, ptr %7, align 8, !tbaa !13
  %56 = load ptr, ptr %7, align 8, !tbaa !13
  %57 = call i32 @TclBN_mp_mul_2d(ptr noundef %55, i32 noundef 1, ptr noundef %56)
  %58 = icmp ne i32 %57, 0
  br i1 %58, label %59, label %61

59:                                               ; preds = %54
  %60 = load ptr, ptr %7, align 8, !tbaa !13
  call void @TclBN_mp_clear(ptr noundef %60)
  store i1 false, ptr %5, align 1
  store i32 1, ptr %12, align 4
  br label %86

61:                                               ; preds = %54
  %62 = load ptr, ptr %6, align 8, !tbaa !10
  %63 = load i32, ptr %11, align 4, !tbaa !21
  %64 = sext i32 %63 to i64
  %65 = call noundef zeroext i8 @_ZNK5Yosys5RTLIL5ConstixEm(ptr noundef nonnull align 8 dereferenceable(40) %62, i64 noundef %64)
  %66 = zext i8 %65 to i32
  %67 = icmp eq i32 %66, 1
  %68 = zext i1 %67 to i32
  %69 = load i8, ptr %10, align 1, !tbaa !6, !range !19, !noundef !20
  %70 = trunc i8 %69 to i1
  %71 = zext i1 %70 to i32
  %72 = xor i32 %68, %71
  %73 = icmp ne i32 %72, 0
  br i1 %73, label %74, label %82

74:                                               ; preds = %61
  %75 = load ptr, ptr %7, align 8, !tbaa !13
  %76 = load ptr, ptr %7, align 8, !tbaa !13
  %77 = call i32 @TclBN_mp_add_d(ptr noundef %75, i32 noundef 1, ptr noundef %76)
  %78 = icmp ne i32 %77, 0
  br i1 %78, label %79, label %81

79:                                               ; preds = %74
  %80 = load ptr, ptr %7, align 8, !tbaa !13
  call void @TclBN_mp_clear(ptr noundef %80)
  store i1 false, ptr %5, align 1
  store i32 1, ptr %12, align 4
  br label %86

81:                                               ; preds = %74
  br label %82

82:                                               ; preds = %81, %61
  br label %83

83:                                               ; preds = %82
  %84 = load i32, ptr %11, align 4, !tbaa !21
  %85 = add nsw i32 %84, -1
  store i32 %85, ptr %11, align 4, !tbaa !21
  br label %50, !llvm.loop !23

86:                                               ; preds = %79, %59, %53
  call void @llvm.lifetime.end.p0(i64 4, ptr %11) #3
  %87 = load i32, ptr %12, align 4
  switch i32 %87, label %105 [
    i32 2, label %88
  ]

88:                                               ; preds = %86
  %89 = load i8, ptr %10, align 1, !tbaa !6, !range !19, !noundef !20
  %90 = trunc i8 %89 to i1
  br i1 %90, label %91, label %104

91:                                               ; preds = %88
  %92 = load ptr, ptr %7, align 8, !tbaa !13
  %93 = load ptr, ptr %7, align 8, !tbaa !13
  %94 = call i32 @TclBN_mp_add_d(ptr noundef %92, i32 noundef 1, ptr noundef %93)
  %95 = icmp ne i32 %94, 0
  br i1 %95, label %101, label %96

96:                                               ; preds = %91
  %97 = load ptr, ptr %7, align 8, !tbaa !13
  %98 = load ptr, ptr %7, align 8, !tbaa !13
  %99 = call i32 @TclBN_mp_neg(ptr noundef %97, ptr noundef %98)
  %100 = icmp ne i32 %99, 0
  br i1 %100, label %101, label %103

101:                                              ; preds = %96, %91
  %102 = load ptr, ptr %7, align 8, !tbaa !13
  call void @TclBN_mp_clear(ptr noundef %102)
  store i1 false, ptr %5, align 1
  store i32 1, ptr %12, align 4
  br label %105

103:                                              ; preds = %96
  br label %104

104:                                              ; preds = %103, %88
  store i1 true, ptr %5, align 1
  store i32 1, ptr %12, align 4
  br label %105

105:                                              ; preds = %104, %101, %86
  call void @llvm.lifetime.end.p0(i64 1, ptr %10) #3
  br label %106

106:                                              ; preds = %105, %22, %17
  %107 = load i1, ptr %5, align 1
  ret i1 %107
}