; Function Attrs: mustprogress uwtable
define noundef zeroext i1 @_ZN5Yosys15const_to_mp_intERKNS_5RTLIL5ConstEP6mp_intbb(ptr noundef nonnull align 8 dereferenceable(40) %0, ptr noundef %1, i1 noundef zeroext %2, i1 noundef zeroext %3) local_unnamed_addr #4 {
  %5 = alloca %"class.Yosys::RTLIL::Const::const_iterator", align 8
  %6 = alloca %"class.Yosys::RTLIL::Const::const_iterator", align 8
  %7 = tail call noundef zeroext i1 @_ZNK5Yosys5RTLIL5Const12is_fully_defEv(ptr noundef nonnull align 8 dereferenceable(40) %0)
  br i1 %7, label %8, label %42

8:                                                ; preds = %4
  %9 = tail call i32 @TclBN_mp_init(ptr noundef %1)
  %.not = icmp eq i32 %9, 0
  br i1 %.not, label %10, label %42

10:                                               ; preds = %8
  %11 = load i16, ptr %0, align 8, !tbaa !10
  %12 = and i16 %11, 2
  %.not28 = icmp ne i16 %12, 0
  %brmerge = or i1 %2, %.not28
  %brmerge.not = xor i1 %brmerge, true
  %brmerge33 = or i1 %3, %brmerge.not
  br i1 %brmerge33, label %22, label %13

13:                                               ; preds = %10
  %14 = tail call noundef zeroext i1 @_ZNK5Yosys5RTLIL5Const5emptyEv(ptr noundef nonnull align 8 dereferenceable(40) %0)
  br i1 %14, label %22, label %15

15:                                               ; preds = %13
  call void @llvm.lifetime.start.p0(i64 16, ptr nonnull %6) #32
  %16 = tail call noundef i32 @_ZNK5Yosys5RTLIL5Const4sizeEv(ptr noundef nonnull align 8 dereferenceable(40) %0)
  %17 = sext i32 %16 to i64
  %18 = add nsw i64 %17, -1
  store ptr %0, ptr %6, align 8
  %19 = getelementptr inbounds nuw i8, ptr %6, i64 8
  store i64 %18, ptr %19, align 8
  %20 = call noundef zeroext i8 @_ZNK5Yosys5RTLIL5Const14const_iteratordeEv(ptr noundef nonnull align 8 dereferenceable(16) %6)
  call void @llvm.lifetime.end.p0(i64 16, ptr nonnull %6) #32
  %21 = icmp eq i8 %20, 1
  br label %22

22:                                               ; preds = %10, %15, %13
  %23 = phi i1 [ false, %13 ], [ %21, %15 ], [ false, %10 ]
  %24 = call noundef i32 @_ZNK5Yosys5RTLIL5Const4sizeEv(ptr noundef nonnull align 8 dereferenceable(40) %0)
  %25 = icmp slt i32 %24, 1
  br i1 %25, label %.critedge, label %.lr.ph

.lr.ph:                                           ; preds = %22
  %26 = getelementptr inbounds nuw i8, ptr %5, i64 8
  %27 = zext nneg i32 %24 to i64
  br label %28

28:                                               ; preds = %.lr.ph, %36
  %indvars.iv = phi i64 [ %27, %.lr.ph ], [ %indvars.iv.next, %36 ]
  %indvars.iv.next = add nsw i64 %indvars.iv, -1
  %29 = call i32 @TclBN_mp_mul_2d(ptr noundef %1, i32 noundef 1, ptr noundef %1)
  %.not29 = icmp eq i32 %29, 0
  br i1 %.not29, label %30, label %.sink.split

30:                                               ; preds = %28
  call void @llvm.lifetime.start.p0(i64 16, ptr nonnull %5) #32
  store ptr %0, ptr %5, align 8, !tbaa !14
  store i64 %indvars.iv.next, ptr %26, align 8, !tbaa !17
  %31 = call noundef zeroext i8 @_ZNK5Yosys5RTLIL5Const14const_iteratordeEv(ptr noundef nonnull align 8 dereferenceable(16) %5)
  call void @llvm.lifetime.end.p0(i64 16, ptr nonnull %5) #32
  %32 = icmp eq i8 %31, 1
  %33 = xor i1 %23, %32
  br i1 %33, label %34, label %36

34:                                               ; preds = %30
  %35 = call i32 @TclBN_mp_add_d(ptr noundef %1, i32 noundef 1, ptr noundef %1)
  %.not30 = icmp eq i32 %35, 0
  br i1 %.not30, label %36, label %.sink.split

36:                                               ; preds = %30, %34
  %37 = icmp samesign ult i64 %indvars.iv, 2
  br i1 %37, label %.critedge, label %28, !llvm.loop !20

.critedge:                                        ; preds = %36, %22
  br i1 %23, label %38, label %42

38:                                               ; preds = %.critedge
  %39 = call i32 @TclBN_mp_add_d(ptr noundef %1, i32 noundef 1, ptr noundef %1)
  %.not31 = icmp eq i32 %39, 0
  br i1 %.not31, label %40, label %.sink.split

40:                                               ; preds = %38
  %41 = call i32 @TclBN_mp_neg(ptr noundef %1, ptr noundef %1)
  %.not32 = icmp eq i32 %41, 0
  br i1 %.not32, label %42, label %.sink.split

.sink.split:                                      ; preds = %34, %28, %38, %40
  call void @TclBN_mp_clear(ptr noundef %1)
  br label %42

42:                                               ; preds = %.sink.split, %40, %.critedge, %8, %4
  %.027 = phi i1 [ false, %4 ], [ false, %8 ], [ true, %40 ], [ true, %.critedge ], [ false, %.sink.split ]
  ret i1 %.027
}